target datalayout = "e-m:e-p270:32:32-p271:32:32-p272:64:64-i64:64-i128:128-f80:128-n8:16:32:64-S128"
target triple = "x86_64-pc-linux-gnu"

%struct.Curl_cftype = type { ptr, i32, i32, ptr, ptr, ptr, ptr, ptr, ptr, ptr, ptr, ptr, ptr, ptr, ptr, ptr }
%struct.Curl_cfilter = type { ptr, ptr, ptr, ptr, i32, i8 }
%struct.Curl_llist_node = type { ptr, ptr, ptr, ptr }
%struct.ip_quadruple = type { [46 x i8], [46 x i8], i32, i32 }
%struct.easy_pollset = type { [5 x i32], i32, [5 x i8] }
%struct.ssl_primary_config = type { ptr, ptr, ptr, ptr, ptr, ptr, ptr, ptr, ptr, ptr, ptr, ptr, ptr, ptr, i8, i32, i8, i8 }
%struct.curltime = type { i64, i32 }
%struct.Curl_llist = type { ptr, ptr, ptr, i64 }
%struct.dynbuf = type { ptr, i64, i64, i64 }
%struct.Curl_easy = type { i32, i64, i64, ptr, %struct.Curl_llist_node, %struct.Curl_llist_node, i32, i32, %struct.Curl_message, %struct.easy_pollset, %struct.Names, ptr, ptr, ptr, ptr, %struct.SingleRequest, %struct.UserDefined, ptr, ptr, ptr, %struct.Progress, %struct.UrlState, ptr, %struct.PureInfo, %struct.curl_tlssessioninfo }
%struct.Curl_message = type { %struct.Curl_llist_node, %struct.CURLMsg }
%struct.CURLMsg = type { i32, ptr, %union.anon.0 }
%union.anon.0 = type { ptr }
%struct.Names = type { ptr, i32 }
%struct.SingleRequest = type <{ i64, i64, i64, i64, %struct.curltime, i32, i32, i32, i32, i64, i32, i32, i8, i8, [2 x i8], i32, ptr, ptr, %struct.bufq, i64, i64, ptr, ptr, %union.anon.1, ptr, i8, i32, [3 x i8] }>
%struct.bufq = type { ptr, ptr, ptr, ptr, i64, i64, i64, i32 }
%union.anon.1 = type { ptr }
%struct.UserDefined = type <{ ptr, ptr, ptr, ptr, ptr, ptr, i64, i64, i64, ptr, ptr, i64, ptr, ptr, ptr, ptr, ptr, ptr, ptr, ptr, ptr, ptr, ptr, ptr, ptr, ptr, ptr, ptr, ptr, ptr, ptr, ptr, ptr, ptr, ptr, i64, i64, i64, i64, i64, i64, i64, i64, i64, ptr, ptr, %struct.curl_mimepart, ptr, ptr, ptr, i64, %struct.ssl_config_data, %struct.ssl_config_data, ptr, i16, i8, i8, %struct.ssl_general_config, i32, i32, i32, [4 x i8], ptr, ptr, i64, i32, i8, i8, i8, i8, ptr, ptr, ptr, i32, [4 x i8], [74 x ptr], [8 x ptr], i32, i32, i32, [4 x i8], ptr, i32, [4 x i8], ptr, ptr, ptr, ptr, ptr, i32, i32, i32, i32, i32, i32, i32, i32, i64, ptr, ptr, i64, ptr, i64, ptr, ptr, ptr, ptr, i32, i16, i16, i16, i8, i8, i8, i8, i8, i8, i8, i8, i64, [6 x i8] }>
%struct.curl_mimepart = type { ptr, ptr, i32, i32, ptr, ptr, ptr, ptr, ptr, ptr, ptr, ptr, ptr, ptr, ptr, i64, %struct.mime_state, ptr, %struct.mime_encoder_state, i64 }
%struct.mime_state = type { i32, ptr, i64 }
%struct.mime_encoder_state = type { i64, i64, i64, [256 x i8] }
%struct.ssl_config_data = type { %struct.ssl_primary_config, i64, ptr, ptr, ptr, ptr, ptr, ptr, ptr, i16 }
%struct.ssl_general_config = type { i32 }
%struct.Progress = type { i64, %struct.pgrs_dir, %struct.pgrs_dir, i64, i64, i32, i32, i64, i64, i64, i64, i64, i64, i64, i64, i64, %struct.curltime, %struct.curltime, %struct.curltime, %struct.curltime, %struct.curltime, [6 x i64], [6 x %struct.curltime], i32, i8 }
%struct.pgrs_dir = type { i64, i64, i64, %struct.pgrs_measure }
%struct.pgrs_measure = type { %struct.curltime, i64 }
%struct.UrlState = type { %struct.curltime, i64, i64, %struct.dynbuf, ptr, i64, ptr, i32, i32, i32, ptr, i32, i64, i32, ptr, %struct.digestdata, %struct.digestdata, %struct.auth, %struct.auth, %struct.Curl_async, ptr, i8, %struct.curltime, %struct.Curl_tree, %struct.Curl_llist, [15 x %struct.time_node], ptr, ptr, i64, i64, i64, i64, [32 x i8], i64, ptr, ptr, ptr, %struct.urlpieces, ptr, ptr, ptr, ptr, ptr, i64, %struct.dynbuf, %struct.Curl_llist, [2 x %struct.curl_header], ptr, i32, ptr, ptr, %struct.store_netrc, %struct.dynamically_allocated_data, i8, i8, i8, i8, i32 }
%struct.digestdata = type { ptr, ptr, ptr, ptr, ptr, ptr, i32, i8, i8 }
%struct.auth = type { i64, i64, i64, i8 }
%struct.Curl_async = type { ptr, ptr, ptr, ptr, i32, i32, i8 }
%struct.Curl_tree = type { ptr, ptr, ptr, ptr, %struct.curltime, ptr }
%struct.time_node = type { %struct.Curl_llist_node, %struct.curltime, i32 }
%struct.urlpieces = type { ptr, ptr, ptr, ptr, ptr, ptr, ptr, ptr }
%struct.curl_header = type { ptr, ptr, i64, i64, i32, ptr }
%struct.store_netrc = type { %struct.dynbuf, ptr, i8 }
%struct.dynamically_allocated_data = type { ptr, ptr, ptr, ptr, ptr, ptr, ptr, ptr, ptr, ptr, ptr, ptr, ptr, ptr }
%struct.PureInfo = type { i32, i32, i32, i64, i64, i64, i64, i64, i64, i64, ptr, ptr, i64, i32, %struct.ip_quadruple, i32, ptr, i32, %struct.curl_certinfo, i32, i8 }
%struct.curl_certinfo = type { i32, ptr }
%struct.curl_tlssessioninfo = type { i32, ptr }
%struct.cf_proxy_ctx = type { ptr, i32 }
%struct.curl_trc_feat = type { ptr, i32 }

@.str.22 = private unnamed_addr constant [6 x i8] c"close\00", align 1

; Function Attrs: nounwind uwtable
define internal void @http_proxy_cf_close(ptr noundef %0, ptr noundef %1) #0 {
  %3 = alloca ptr, align 8
  %4 = alloca ptr, align 8
  %5 = alloca ptr, align 8
  %6 = alloca ptr, align 8
  store ptr %0, ptr %3, align 8, !tbaa !3
  store ptr %1, ptr %4, align 8, !tbaa !53
  call void @llvm.lifetime.start.p0(i64 8, ptr %5) #5
  %7 = load ptr, ptr %3, align 8, !tbaa !3
  %8 = getelementptr inbounds nuw %struct.Curl_cfilter, ptr %7, i32 0, i32 2
  %9 = load ptr, ptr %8, align 8, !tbaa !55
  store ptr %9, ptr %5, align 8, !tbaa !56
  br label %10

10:                                               ; preds = %2
  %11 = load ptr, ptr %4, align 8, !tbaa !53
  %12 = icmp ne ptr %11, null
  br i1 %12, label %13, label %49

13:                                               ; preds = %10
  %14 = load ptr, ptr %4, align 8, !tbaa !53
  %15 = getelementptr inbounds nuw %struct.Curl_easy, ptr %14, i32 0, i32 16
  %16 = getelementptr inbounds nuw %struct.UserDefined, ptr %15, i32 0, i32 119
  %17 = load i64, ptr %16, align 2
  %18 = lshr i64 %17, 31
  %19 = and i64 %18, 1
  %20 = trunc i64 %19 to i32
  %21 = icmp ne i32 %20, 0
  br i1 %21, label %22, label %49

22:                                               ; preds = %13
  %23 = load ptr, ptr %4, align 8, !tbaa !53
  %24 = getelementptr inbounds nuw %struct.Curl_easy, ptr %23, i32 0, i32 21
  %25 = getelementptr inbounds nuw %struct.UrlState, ptr %24, i32 0, i32 50
  %26 = load ptr, ptr %25, align 8, !tbaa !150
  %27 = icmp ne ptr %26, null
  br i1 %27, label %28, label %36

28:                                               ; preds = %22
  %29 = load ptr, ptr %4, align 8, !tbaa !53
  %30 = getelementptr inbounds nuw %struct.Curl_easy, ptr %29, i32 0, i32 21
  %31 = getelementptr inbounds nuw %struct.UrlState, ptr %30, i32 0, i32 50
  %32 = load ptr, ptr %31, align 8, !tbaa !150
  %33 = getelementptr inbounds nuw %struct.curl_trc_feat, ptr %32, i32 0, i32 1
  %34 = load i32, ptr %33, align 8, !tbaa !151
  %35 = icmp sge i32 %34, 1
  br i1 %35, label %36, label %49

36:                                               ; preds = %28, %22
  %37 = load ptr, ptr %3, align 8, !tbaa !3
  %38 = icmp ne ptr %37, null
  br i1 %38, label %39, label %49

39:                                               ; preds = %36
  %40 = load ptr, ptr %3, align 8, !tbaa !3
  %41 = getelementptr inbounds nuw %struct.Curl_cfilter, ptr %40, i32 0, i32 0
  %42 = load ptr, ptr %41, align 8, !tbaa !147
  %43 = getelementptr inbounds nuw %struct.Curl_cftype, ptr %42, i32 0, i32 2
  %44 = load i32, ptr %43, align 4, !tbaa !153
  %45 = icmp sge i32 %44, 1
  br i1 %45, label %46, label %49

46:                                               ; preds = %39
  %47 = load ptr, ptr %4, align 8, !tbaa !53
  %48 = load ptr, ptr %3, align 8, !tbaa !3
  call void (ptr, ptr, ptr, ...) @Curl_trc_cf_infof(ptr noundef %47, ptr noundef %48, ptr noundef @.str.22)
  br label %49

49:                                               ; preds = %46, %39, %36, %28, %13, %10
  br label %50

50:                                               ; preds = %49
  br label %51

51:                                               ; preds = %50
  %52 = load ptr, ptr %3, align 8, !tbaa !3
  %53 = getelementptr inbounds nuw %struct.Curl_cfilter, ptr %52, i32 0, i32 5
  %54 = load i8, ptr %53, align 4
  %55 = and i8 %54, -2
  %56 = or i8 %55, 0
  store i8 %56, ptr %53, align 4
  %57 = load ptr, ptr %5, align 8, !tbaa !56
  %58 = getelementptr inbounds nuw %struct.cf_proxy_ctx, ptr %57, i32 0, i32 0
  %59 = load ptr, ptr %58, align 8, !tbaa !155
  %60 = icmp ne ptr %59, null
  br i1 %60, label %61, label %89

61:                                               ; preds = %51
  call void @llvm.lifetime.start.p0(i64 8, ptr %6) #5
  %62 = load ptr, ptr %3, align 8, !tbaa !3
  %63 = getelementptr inbounds nuw %struct.Curl_cfilter, ptr %62, i32 0, i32 1
  %64 = load ptr, ptr %63, align 8, !tbaa !146
  store ptr %64, ptr %6, align 8, !tbaa !3
  br label %65

65:                                               ; preds = %82, %61
  %66 = load ptr, ptr %6, align 8, !tbaa !3
  %67 = icmp ne ptr %66, null
  br i1 %67, label %68, label %86

68:                                               ; preds = %65
  %69 = load ptr, ptr %6, align 8, !tbaa !3
  %70 = load ptr, ptr %5, align 8, !tbaa !56
  %71 = getelementptr inbounds nuw %struct.cf_proxy_ctx, ptr %70, i32 0, i32 0
  %72 = load ptr, ptr %71, align 8, !tbaa !155
  %73 = icmp eq ptr %69, %72
  br i1 %73, label %74, label %81

74:                                               ; preds = %68
  %75 = load ptr, ptr %3, align 8, !tbaa !3
  %76 = load ptr, ptr %5, align 8, !tbaa !56
  %77 = getelementptr inbounds nuw %struct.cf_proxy_ctx, ptr %76, i32 0, i32 0
  %78 = load ptr, ptr %77, align 8, !tbaa !155
  %79 = load ptr, ptr %4, align 8, !tbaa !53
  %80 = call zeroext i1 @Curl_conn_cf_discard_sub(ptr noundef %75, ptr noundef %78, ptr noundef %79, i1 noundef zeroext false)
  br label %86

81:                                               ; preds = %68
  br label %82

82:                                               ; preds = %81
  %83 = load ptr, ptr %6, align 8, !tbaa !3
  %84 = getelementptr inbounds nuw %struct.Curl_cfilter, ptr %83, i32 0, i32 1
  %85 = load ptr, ptr %84, align 8, !tbaa !146
  store ptr %85, ptr %6, align 8, !tbaa !3
  br label %65, !llvm.loop !157

86:                                               ; preds = %74, %65
  %87 = load ptr, ptr %5, align 8, !tbaa !56
  %88 = getelementptr inbounds nuw %struct.cf_proxy_ctx, ptr %87, i32 0, i32 0
  store ptr null, ptr %88, align 8, !tbaa !155
  call void @llvm.lifetime.end.p0(i64 8, ptr %6) #5
  br label %89

89:                                               ; preds = %86, %51
  %90 = load ptr, ptr %3, align 8, !tbaa !3
  %91 = getelementptr inbounds nuw %struct.Curl_cfilter, ptr %90, i32 0, i32 1
  %92 = load ptr, ptr %91, align 8, !tbaa !146
  %93 = icmp ne ptr %92, null
  br i1 %93, label %94, label %106

94:                                               ; preds = %89
  %95 = load ptr, ptr %3, align 8, !tbaa !3
  %96 = getelementptr inbounds nuw %struct.Curl_cfilter, ptr %95, i32 0, i32 1
  %97 = load ptr, ptr %96, align 8, !tbaa !146
  %98 = getelementptr inbounds nuw %struct.Curl_cfilter, ptr %97, i32 0, i32 0
  %99 = load ptr, ptr %98, align 8, !tbaa !147
  %100 = getelementptr inbounds nuw %struct.Curl_cftype, ptr %99, i32 0, i32 5
  %101 = load ptr, ptr %100, align 8, !tbaa !158
  %102 = load ptr, ptr %3, align 8, !tbaa !3
  %103 = getelementptr inbounds nuw %struct.Curl_cfilter, ptr %102, i32 0, i32 1
  %104 = load ptr, ptr %103, align 8, !tbaa !146
  %105 = load ptr, ptr %4, align 8, !tbaa !53
  call void %101(ptr noundef %104, ptr noundef %105)
  br label %106

106:                                              ; preds = %94, %89
  call void @llvm.lifetime.end.p0(i64 8, ptr %5) #5
  ret void
}