; Function Attrs: nounwind uwtable
define internal void @http_proxy_cf_close(ptr noundef %0, ptr noundef %1) #2 {
  %3 = getelementptr inbounds nuw i8, ptr %0, i64 16
  %4 = load ptr, ptr %3, align 8, !tbaa !44
  %.not = icmp eq ptr %1, null
  br i1 %.not, label %22, label %5

5:                                                ; preds = %2
  %6 = getelementptr inbounds nuw i8, ptr %1, i64 2658
  %7 = load i64, ptr %6, align 2
  %8 = and i64 %7, 2147483648
  %.not29 = icmp eq i64 %8, 0
  br i1 %.not29, label %22, label %9

9:                                                ; preds = %5
  %10 = getelementptr inbounds nuw i8, ptr %1, i64 4864
  %11 = load ptr, ptr %10, align 8, !tbaa !127
  %.not30 = icmp eq ptr %11, null
  br i1 %.not30, label %16, label %12

12:                                               ; preds = %9
  %13 = getelementptr inbounds nuw i8, ptr %11, i64 8
  %14 = load i32, ptr %13, align 8, !tbaa !128
  %15 = icmp sgt i32 %14, 0
  br i1 %15, label %16, label %22

16:                                               ; preds = %9, %12
  %17 = load ptr, ptr %0, align 8, !tbaa !124
  %18 = getelementptr inbounds nuw i8, ptr %17, i64 12
  %19 = load i32, ptr %18, align 4, !tbaa !130
  %20 = icmp sgt i32 %19, 0
  br i1 %20, label %21, label %22

21:                                               ; preds = %16
  tail call void (ptr, ptr, ptr, ...) @Curl_trc_cf_infof(ptr noundef nonnull %1, ptr noundef nonnull %0, ptr noundef nonnull @.str.22) #6
  br label %22

22:                                               ; preds = %21, %16, %12, %5, %2
  %23 = getelementptr inbounds nuw i8, ptr %0, i64 36
  %24 = load i8, ptr %23, align 4
  %25 = and i8 %24, -2
  store i8 %25, ptr %23, align 4
  %26 = load ptr, ptr %4, align 8, !tbaa !134
  %.not31 = icmp eq ptr %26, null
  br i1 %.not31, label %31, label %.preheader

.preheader:                                       ; preds = %22, %27
  %.pn = phi ptr [ %.0, %27 ], [ %0, %22 ]
  %.0.in = getelementptr inbounds nuw i8, ptr %.pn, i64 8
  %.0 = load ptr, ptr %.0.in, align 8, !tbaa !123
  %.not32 = icmp eq ptr %.0, null
  br i1 %.not32, label %.loopexit, label %27

27:                                               ; preds = %.preheader
  %28 = icmp eq ptr %.0, %26
  br i1 %28, label %29, label %.preheader, !llvm.loop !136

29:                                               ; preds = %27
  %30 = tail call zeroext i1 @Curl_conn_cf_discard_sub(ptr noundef %0, ptr noundef nonnull %26, ptr noundef %1, i1 noundef zeroext false) #6
  br label %.loopexit

.loopexit:                                        ; preds = %.preheader, %29
  store ptr null, ptr %4, align 8, !tbaa !134
  br label %31

31:                                               ; preds = %.loopexit, %22
  %32 = getelementptr inbounds nuw i8, ptr %0, i64 8
  %33 = load ptr, ptr %32, align 8, !tbaa !123
  %.not33 = icmp eq ptr %33, null
  br i1 %.not33, label %38, label %34

34:                                               ; preds = %31
  %35 = load ptr, ptr %33, align 8, !tbaa !124
  %36 = getelementptr inbounds nuw i8, ptr %35, i64 32
  %37 = load ptr, ptr %36, align 8, !tbaa !137
  tail call void %37(ptr noundef nonnull %33, ptr noundef %1) #6
  br label %38

38:                                               ; preds = %34, %31
  ret void
}